target datalayout = "e-m:e-p270:32:32-p271:32:32-p272:64:64-i64:64-i128:128-f80:128-n8:16:32:64-S128"
target triple = "x86_64-pc-linux-gnu"

%"class.pbrt::Bounds3" = type { %"class.pbrt::Point3", %"class.pbrt::Point3" }
%"class.pbrt::Point3" = type { %"class.pbrt::Tuple3" }
%"class.pbrt::Tuple3" = type { float, float, float }
%"class.pbrt::Cylinder" = type <{ ptr, ptr, i8, i8, [2 x i8], float, float, float, float, [4 x i8] }>

; Function Attrs: inlinehint mustprogress nounwind uwtable
define linkonce_odr dso_local noundef nonnull align 4 dereferenceable(4) ptr @_ZSt3maxIfERKT_S2_S2_(ptr noundef nonnull align 4 dereferenceable(4) %0, ptr noundef nonnull align 4 dereferenceable(4) %1) #3 comdat {
  %3 = alloca ptr, align 8
  %4 = alloca ptr, align 8
  %5 = alloca ptr, align 8
  store ptr %0, ptr %4, align 8, !tbaa !91
  store ptr %1, ptr %5, align 8, !tbaa !91
  %6 = load ptr, ptr %4, align 8, !tbaa !91
  %7 = load float, ptr %6, align 4, !tbaa !9
  %8 = load ptr, ptr %5, align 8, !tbaa !91
  %9 = load float, ptr %8, align 4, !tbaa !9
  %10 = fcmp olt float %7, %9
  br i1 %10, label %11, label %13

11:                                               ; preds = %2
  %12 = load ptr, ptr %5, align 8, !tbaa !91
  store ptr %12, ptr %3, align 8
  br label %15

13:                                               ; preds = %2
  %14 = load ptr, ptr %4, align 8, !tbaa !91
  store ptr %14, ptr %3, align 8
  br label %15

15:                                               ; preds = %13, %11
  %16 = load ptr, ptr %3, align 8
  ret ptr %16
}

; Function Attrs: inlinehint mustprogress nounwind uwtable
define linkonce_odr dso_local noundef nonnull align 4 dereferenceable(4) ptr @_ZSt3minIfERKT_S2_S2_(ptr noundef nonnull align 4 dereferenceable(4) %0, ptr noundef nonnull align 4 dereferenceable(4) %1) #3 comdat {
  %3 = alloca ptr, align 8
  %4 = alloca ptr, align 8
  %5 = alloca ptr, align 8
  store ptr %0, ptr %4, align 8, !tbaa !91
  store ptr %1, ptr %5, align 8, !tbaa !91
  %6 = load ptr, ptr %5, align 8, !tbaa !91
  %7 = load float, ptr %6, align 4, !tbaa !9
  %8 = load ptr, ptr %4, align 8, !tbaa !91
  %9 = load float, ptr %8, align 4, !tbaa !9
  %10 = fcmp olt float %7, %9
  br i1 %10, label %11, label %13

11:                                               ; preds = %2
  %12 = load ptr, ptr %5, align 8, !tbaa !91
  store ptr %12, ptr %3, align 8
  br label %15

13:                                               ; preds = %2
  %14 = load ptr, ptr %4, align 8, !tbaa !91
  store ptr %14, ptr %3, align 8
  br label %15

15:                                               ; preds = %13, %11
  %16 = load ptr, ptr %3, align 8
  ret ptr %16
}

; Function Attrs: inlinehint mustprogress uwtable
define linkonce_odr dso_local { <2 x float>, float } @_ZN4pbrt3MaxINS_6Point3EfEET_IT0_ENS_6Tuple3IS2_S3_EES6_(<2 x float> %0, float %1, <2 x float> %2, float %3) #8 comdat {
  %5 = alloca %"class.pbrt::Point3", align 4
  %6 = alloca %"class.pbrt::Tuple3", align 4
  %7 = alloca { <2 x float>, float }, align 4
  %8 = alloca %"class.pbrt::Tuple3", align 4
  %9 = alloca { <2 x float>, float }, align 4
  %10 = alloca { <2 x float>, float }, align 8
  %11 = getelementptr inbounds nuw { <2 x float>, float }, ptr %7, i32 0, i32 0
  store <2 x float> %0, ptr %11, align 4
  %12 = getelementptr inbounds nuw { <2 x float>, float }, ptr %7, i32 0, i32 1
  store float %1, ptr %12, align 4
  call void @llvm.memcpy.p0.p0.i64(ptr align 4 %6, ptr align 4 %7, i64 12, i1 false)
  %13 = getelementptr inbounds nuw { <2 x float>, float }, ptr %9, i32 0, i32 0
  store <2 x float> %2, ptr %13, align 4
  %14 = getelementptr inbounds nuw { <2 x float>, float }, ptr %9, i32 0, i32 1
  store float %3, ptr %14, align 4
  call void @llvm.memcpy.p0.p0.i64(ptr align 4 %8, ptr align 4 %9, i64 12, i1 false)
  %15 = getelementptr inbounds nuw %"class.pbrt::Tuple3", ptr %6, i32 0, i32 0
  %16 = getelementptr inbounds nuw %"class.pbrt::Tuple3", ptr %8, i32 0, i32 0
  %17 = call noundef nonnull align 4 dereferenceable(4) ptr @_ZSt3maxIfERKT_S2_S2_(ptr noundef nonnull align 4 dereferenceable(4) %15, ptr noundef nonnull align 4 dereferenceable(4) %16)
  %18 = load float, ptr %17, align 4, !tbaa !9
  %19 = getelementptr inbounds nuw %"class.pbrt::Tuple3", ptr %6, i32 0, i32 1
  %20 = getelementptr inbounds nuw %"class.pbrt::Tuple3", ptr %8, i32 0, i32 1
  %21 = call noundef nonnull align 4 dereferenceable(4) ptr @_ZSt3maxIfERKT_S2_S2_(ptr noundef nonnull align 4 dereferenceable(4) %19, ptr noundef nonnull align 4 dereferenceable(4) %20)
  %22 = load float, ptr %21, align 4, !tbaa !9
  %23 = getelementptr inbounds nuw %"class.pbrt::Tuple3", ptr %6, i32 0, i32 2
  %24 = getelementptr inbounds nuw %"class.pbrt::Tuple3", ptr %8, i32 0, i32 2
  %25 = call noundef nonnull align 4 dereferenceable(4) ptr @_ZSt3maxIfERKT_S2_S2_(ptr noundef nonnull align 4 dereferenceable(4) %23, ptr noundef nonnull align 4 dereferenceable(4) %24)
  %26 = load float, ptr %25, align 4, !tbaa !9
  call void @_ZN4pbrt6Point3IfEC2Efff(ptr noundef nonnull align 4 dereferenceable(12) %5, float noundef %18, float noundef %22, float noundef %26)
  %27 = getelementptr inbounds nuw %"class.pbrt::Point3", ptr %5, i32 0, i32 0
  call void @llvm.memcpy.p0.p0.i64(ptr align 8 %10, ptr align 4 %27, i64 12, i1 false)
  %28 = load { <2 x float>, float }, ptr %10, align 8
  ret { <2 x float>, float } %28
}

; Function Attrs: inlinehint mustprogress uwtable
define linkonce_odr dso_local { <2 x float>, float } @_ZN4pbrt3MinINS_6Point3EfEET_IT0_ENS_6Tuple3IS2_S3_EES6_(<2 x float> %0, float %1, <2 x float> %2, float %3) #8 comdat {
  %5 = alloca %"class.pbrt::Point3", align 4
  %6 = alloca %"class.pbrt::Tuple3", align 4
  %7 = alloca { <2 x float>, float }, align 4
  %8 = alloca %"class.pbrt::Tuple3", align 4
  %9 = alloca { <2 x float>, float }, align 4
  %10 = alloca { <2 x float>, float }, align 8
  %11 = getelementptr inbounds nuw { <2 x float>, float }, ptr %7, i32 0, i32 0
  store <2 x float> %0, ptr %11, align 4
  %12 = getelementptr inbounds nuw { <2 x float>, float }, ptr %7, i32 0, i32 1
  store float %1, ptr %12, align 4
  call void @llvm.memcpy.p0.p0.i64(ptr align 4 %6, ptr align 4 %7, i64 12, i1 false)
  %13 = getelementptr inbounds nuw { <2 x float>, float }, ptr %9, i32 0, i32 0
  store <2 x float> %2, ptr %13, align 4
  %14 = getelementptr inbounds nuw { <2 x float>, float }, ptr %9, i32 0, i32 1
  store float %3, ptr %14, align 4
  call void @llvm.memcpy.p0.p0.i64(ptr align 4 %8, ptr align 4 %9, i64 12, i1 false)
  %15 = getelementptr inbounds nuw %"class.pbrt::Tuple3", ptr %6, i32 0, i32 0
  %16 = getelementptr inbounds nuw %"class.pbrt::Tuple3", ptr %8, i32 0, i32 0
  %17 = call noundef nonnull align 4 dereferenceable(4) ptr @_ZSt3minIfERKT_S2_S2_(ptr noundef nonnull align 4 dereferenceable(4) %15, ptr noundef nonnull align 4 dereferenceable(4) %16)
  %18 = load float, ptr %17, align 4, !tbaa !9
  %19 = getelementptr inbounds nuw %"class.pbrt::Tuple3", ptr %6, i32 0, i32 1
  %20 = getelementptr inbounds nuw %"class.pbrt::Tuple3", ptr %8, i32 0, i32 1
  %21 = call noundef nonnull align 4 dereferenceable(4) ptr @_ZSt3minIfERKT_S2_S2_(ptr noundef nonnull align 4 dereferenceable(4) %19, ptr noundef nonnull align 4 dereferenceable(4) %20)
  %22 = load float, ptr %21, align 4, !tbaa !9
  %23 = getelementptr inbounds nuw %"class.pbrt::Tuple3", ptr %6, i32 0, i32 2
  %24 = getelementptr inbounds nuw %"class.pbrt::Tuple3", ptr %8, i32 0, i32 2
  %25 = call noundef nonnull align 4 dereferenceable(4) ptr @_ZSt3minIfERKT_S2_S2_(ptr noundef nonnull align 4 dereferenceable(4) %23, ptr noundef nonnull align 4 dereferenceable(4) %24)
  %26 = load float, ptr %25, align 4, !tbaa !9
  call void @_ZN4pbrt6Point3IfEC2Efff(ptr noundef nonnull align 4 dereferenceable(12) %5, float noundef %18, float noundef %22, float noundef %26)
  %27 = getelementptr inbounds nuw %"class.pbrt::Point3", ptr %5, i32 0, i32 0
  call void @llvm.memcpy.p0.p0.i64(ptr align 8 %10, ptr align 4 %27, i64 12, i1 false)
  %28 = load { <2 x float>, float }, ptr %10, align 8
  ret { <2 x float>, float } %28
}

; Function Attrs: mustprogress nounwind uwtable
define linkonce_odr dso_local void @_ZN4pbrt6Tuple3INS_6Point3EfEC2Efff(ptr noundef nonnull align 4 dereferenceable(12) %0, float noundef %1, float noundef %2, float noundef %3) unnamed_addr #6 comdat align 2 {
  %5 = alloca ptr, align 8
  %6 = alloca float, align 4
  %7 = alloca float, align 4
  %8 = alloca float, align 4
  store ptr %0, ptr %5, align 8, !tbaa !58
  store float %1, ptr %6, align 4, !tbaa !9
  store float %2, ptr %7, align 4, !tbaa !9
  store float %3, ptr %8, align 4, !tbaa !9
  %9 = load ptr, ptr %5, align 8
  %10 = getelementptr inbounds nuw %"class.pbrt::Tuple3", ptr %9, i32 0, i32 0
  %11 = load float, ptr %6, align 4, !tbaa !9
  store float %11, ptr %10, align 4, !tbaa !28
  %12 = getelementptr inbounds nuw %"class.pbrt::Tuple3", ptr %9, i32 0, i32 1
  %13 = load float, ptr %7, align 4, !tbaa !9
  store float %13, ptr %12, align 4, !tbaa !30
  %14 = getelementptr inbounds nuw %"class.pbrt::Tuple3", ptr %9, i32 0, i32 2
  %15 = load float, ptr %8, align 4, !tbaa !9
  store float %15, ptr %14, align 4, !tbaa !31
  br label %16

16:                                               ; preds = %4
  br label %17

17:                                               ; preds = %16
  ret void
}

; Function Attrs: mustprogress uwtable
define linkonce_odr dso_local void @_ZN4pbrt7Bounds3IfEC2ENS_6Point3IfEES3_(ptr noundef nonnull align 4 dereferenceable(24) %0, <2 x float> %1, float %2, <2 x float> %3, float %4) unnamed_addr #5 comdat align 2 {
  %6 = alloca %"class.pbrt::Point3", align 4
  %7 = alloca { <2 x float>, float }, align 4
  %8 = alloca %"class.pbrt::Point3", align 4
  %9 = alloca { <2 x float>, float }, align 4
  %10 = alloca ptr, align 8
  %11 = alloca %"class.pbrt::Tuple3", align 4
  %12 = alloca %"class.pbrt::Tuple3", align 4
  %13 = alloca { <2 x float>, float }, align 4
  %14 = alloca { <2 x float>, float }, align 4
  %15 = alloca { <2 x float>, float }, align 8
  %16 = alloca %"class.pbrt::Tuple3", align 4
  %17 = alloca %"class.pbrt::Tuple3", align 4
  %18 = alloca { <2 x float>, float }, align 4
  %19 = alloca { <2 x float>, float }, align 4
  %20 = alloca { <2 x float>, float }, align 8
  %21 = getelementptr inbounds nuw { <2 x float>, float }, ptr %7, i32 0, i32 0
  store <2 x float> %1, ptr %21, align 4
  %22 = getelementptr inbounds nuw { <2 x float>, float }, ptr %7, i32 0, i32 1
  store float %2, ptr %22, align 4
  call void @llvm.memcpy.p0.p0.i64(ptr align 4 %6, ptr align 4 %7, i64 12, i1 false)
  %23 = getelementptr inbounds nuw { <2 x float>, float }, ptr %9, i32 0, i32 0
  store <2 x float> %3, ptr %23, align 4
  %24 = getelementptr inbounds nuw { <2 x float>, float }, ptr %9, i32 0, i32 1
  store float %4, ptr %24, align 4
  call void @llvm.memcpy.p0.p0.i64(ptr align 4 %8, ptr align 4 %9, i64 12, i1 false)
  store ptr %0, ptr %10, align 8, !tbaa !25
  %25 = load ptr, ptr %10, align 8
  %26 = getelementptr inbounds nuw %"class.pbrt::Bounds3", ptr %25, i32 0, i32 0
  call void @llvm.memcpy.p0.p0.i64(ptr align 4 %11, ptr align 4 %6, i64 12, i1 false), !tbaa.struct !27
  call void @llvm.memcpy.p0.p0.i64(ptr align 4 %12, ptr align 4 %8, i64 12, i1 false), !tbaa.struct !27
  call void @llvm.memcpy.p0.p0.i64(ptr align 4 %13, ptr align 4 %11, i64 12, i1 false)
  %27 = getelementptr inbounds nuw { <2 x float>, float }, ptr %13, i32 0, i32 0
  %28 = load <2 x float>, ptr %27, align 4
  %29 = getelementptr inbounds nuw { <2 x float>, float }, ptr %13, i32 0, i32 1
  %30 = load float, ptr %29, align 4
  call void @llvm.memcpy.p0.p0.i64(ptr align 4 %14, ptr align 4 %12, i64 12, i1 false)
  %31 = getelementptr inbounds nuw { <2 x float>, float }, ptr %14, i32 0, i32 0
  %32 = load <2 x float>, ptr %31, align 4
  %33 = getelementptr inbounds nuw { <2 x float>, float }, ptr %14, i32 0, i32 1
  %34 = load float, ptr %33, align 4
  %35 = call { <2 x float>, float } @_ZN4pbrt3MinINS_6Point3EfEET_IT0_ENS_6Tuple3IS2_S3_EES6_(<2 x float> %28, float %30, <2 x float> %32, float %34)
  %36 = getelementptr inbounds nuw %"class.pbrt::Point3", ptr %26, i32 0, i32 0
  store { <2 x float>, float } %35, ptr %15, align 8
  call void @llvm.memcpy.p0.p0.i64(ptr align 4 %36, ptr align 8 %15, i64 12, i1 false)
  %37 = getelementptr inbounds nuw %"class.pbrt::Bounds3", ptr %25, i32 0, i32 1
  call void @llvm.memcpy.p0.p0.i64(ptr align 4 %16, ptr align 4 %6, i64 12, i1 false), !tbaa.struct !27
  call void @llvm.memcpy.p0.p0.i64(ptr align 4 %17, ptr align 4 %8, i64 12, i1 false), !tbaa.struct !27
  call void @llvm.memcpy.p0.p0.i64(ptr align 4 %18, ptr align 4 %16, i64 12, i1 false)
  %38 = getelementptr inbounds nuw { <2 x float>, float }, ptr %18, i32 0, i32 0
  %39 = load <2 x float>, ptr %38, align 4
  %40 = getelementptr inbounds nuw { <2 x float>, float }, ptr %18, i32 0, i32 1
  %41 = load float, ptr %40, align 4
  call void @llvm.memcpy.p0.p0.i64(ptr align 4 %19, ptr align 4 %17, i64 12, i1 false)
  %42 = getelementptr inbounds nuw { <2 x float>, float }, ptr %19, i32 0, i32 0
  %43 = load <2 x float>, ptr %42, align 4
  %44 = getelementptr inbounds nuw { <2 x float>, float }, ptr %19, i32 0, i32 1
  %45 = load float, ptr %44, align 4
  %46 = call { <2 x float>, float } @_ZN4pbrt3MaxINS_6Point3EfEET_IT0_ENS_6Tuple3IS2_S3_EES6_(<2 x float> %39, float %41, <2 x float> %43, float %45)
  %47 = getelementptr inbounds nuw %"class.pbrt::Point3", ptr %37, i32 0, i32 0
  store { <2 x float>, float } %46, ptr %20, align 8
  call void @llvm.memcpy.p0.p0.i64(ptr align 4 %47, ptr align 8 %20, i64 12, i1 false)
  ret void
}

; Function Attrs: mustprogress nounwind uwtable
define linkonce_odr dso_local void @_ZN4pbrt6Point3IfEC2Efff(ptr noundef nonnull align 4 dereferenceable(12) %0, float noundef %1, float noundef %2, float noundef %3) unnamed_addr #6 comdat align 2 {
  %5 = alloca ptr, align 8
  %6 = alloca float, align 4
  %7 = alloca float, align 4
  %8 = alloca float, align 4
  store ptr %0, ptr %5, align 8, !tbaa !23
  store float %1, ptr %6, align 4, !tbaa !9
  store float %2, ptr %7, align 4, !tbaa !9
  store float %3, ptr %8, align 4, !tbaa !9
  %9 = load ptr, ptr %5, align 8
  %10 = load float, ptr %6, align 4, !tbaa !9
  %11 = load float, ptr %7, align 4, !tbaa !9
  %12 = load float, ptr %8, align 4, !tbaa !9
  call void @_ZN4pbrt6Tuple3INS_6Point3EfEC2Efff(ptr noundef nonnull align 4 dereferenceable(12) %9, float noundef %10, float noundef %11, float noundef %12)
  ret void
}

; Function Attrs: mustprogress uwtable
define dso_local void @_ZNK4pbrt8Cylinder6BoundsEv(ptr dead_on_unwind noalias writable sret(%"class.pbrt::Bounds3") align 4 %0, ptr noundef nonnull align 8 dereferenceable(36) %1) #5 align 2 {
  %3 = alloca ptr, align 8
  %4 = alloca %"class.pbrt::Bounds3", align 4
  %5 = alloca %"class.pbrt::Point3", align 4
  %6 = alloca %"class.pbrt::Point3", align 4
  %7 = alloca { <2 x float>, float }, align 4
  %8 = alloca { <2 x float>, float }, align 4
  store ptr %1, ptr %3, align 8, !tbaa !117
  %9 = load ptr, ptr %3, align 8
  %10 = getelementptr inbounds nuw %"class.pbrt::Cylinder", ptr %9, i32 0, i32 0
  %11 = load ptr, ptr %10, align 8, !tbaa !119
  call void @llvm.lifetime.start.p0(i64 24, ptr %4) #23
  %12 = getelementptr inbounds nuw %"class.pbrt::Cylinder", ptr %9, i32 0, i32 5
  %13 = load float, ptr %12, align 4, !tbaa !121
  %14 = fneg float %13
  %15 = getelementptr inbounds nuw %"class.pbrt::Cylinder", ptr %9, i32 0, i32 5
  %16 = load float, ptr %15, align 4, !tbaa !121
  %17 = fneg float %16
  %18 = getelementptr inbounds nuw %"class.pbrt::Cylinder", ptr %9, i32 0, i32 6
  %19 = load float, ptr %18, align 8, !tbaa !122
  call void @_ZN4pbrt6Point3IfEC2Efff(ptr noundef nonnull align 4 dereferenceable(12) %5, float noundef %14, float noundef %17, float noundef %19)
  %20 = getelementptr inbounds nuw %"class.pbrt::Cylinder", ptr %9, i32 0, i32 5
  %21 = load float, ptr %20, align 4, !tbaa !121
  %22 = getelementptr inbounds nuw %"class.pbrt::Cylinder", ptr %9, i32 0, i32 5
  %23 = load float, ptr %22, align 4, !tbaa !121
  %24 = getelementptr inbounds nuw %"class.pbrt::Cylinder", ptr %9, i32 0, i32 7
  %25 = load float, ptr %24, align 4, !tbaa !123
  call void @_ZN4pbrt6Point3IfEC2Efff(ptr noundef nonnull align 4 dereferenceable(12) %6, float noundef %21, float noundef %23, float noundef %25)
  call void @llvm.memcpy.p0.p0.i64(ptr align 4 %7, ptr align 4 %5, i64 12, i1 false)
  %26 = getelementptr inbounds nuw { <2 x float>, float }, ptr %7, i32 0, i32 0
  %27 = load <2 x float>, ptr %26, align 4
  %28 = getelementptr inbounds nuw { <2 x float>, float }, ptr %7, i32 0, i32 1
  %29 = load float, ptr %28, align 4
  call void @llvm.memcpy.p0.p0.i64(ptr align 4 %8, ptr align 4 %6, i64 12, i1 false)
  %30 = getelementptr inbounds nuw { <2 x float>, float }, ptr %8, i32 0, i32 0
  %31 = load <2 x float>, ptr %30, align 4
  %32 = getelementptr inbounds nuw { <2 x float>, float }, ptr %8, i32 0, i32 1
  %33 = load float, ptr %32, align 4
  call void @_ZN4pbrt7Bounds3IfEC2ENS_6Point3IfEES3_(ptr noundef nonnull align 4 dereferenceable(24) %4, <2 x float> %27, float %29, <2 x float> %31, float %33)
  call void @_ZNK4pbrt9TransformclERKNS_7Bounds3IfEE(ptr dead_on_unwind writable sret(%"class.pbrt::Bounds3") align 4 %0, ptr noundef nonnull align 4 dereferenceable(128) %11, ptr noundef nonnull align 4 dereferenceable(24) %4)
  call void @llvm.lifetime.end.p0(i64 24, ptr %4) #23
  ret void
}